Certificate:
    Data:
        Version: 3 (0x2)
        Serial Number:
            d7:f9:78:6e:63:d2:7f:f4
        Signature Algorithm: sha256WithRSAEncryption
        Issuer: C=DE, ST=Berlin, CN=rqztech.com
        Validity
            Not Before: Apr 16 11:38:38 2016 GMT
            Not After : Apr 14 11:38:38 2026 GMT
        Subject: C=DE, ST=Berlin, CN=rqztech.com
        Subject Public Key Info:
            Public Key Algorithm: rsaEncryption
            RSA Public Key: (4096 bit)
                Modulus (4096 bit):
                    00:c3:11:ec:01:27:60:d1:d3:92:53:c3:06:31:ca:
                    f9:82:7a:57:7b:17:d3:a6:61:8e:57:ad:e9:d2:9d:
                    cb:40:1e:32:de:e7:3c:79:eb:c5:cc:f7:78:af:d3:
                    a0:43:54:28:e1:0d:ba:69:56:ea:d9:03:dd:c8:41:
                    5f:8d:12:3e:23:85:94:73:d9:83:db:90:83:35:60:
                    6a:c5:96:77:7c:3c:04:9d:05:5b:4d:15:9e:5c:54:
                    ea:dd:1a:03:4d:db:8a:56:b3:f9:ee:12:89:01:b0:
                    d0:79:bb:c1:5d:55:9b:e4:3d:a5:91:0e:fc:36:2f:
                    91:51:0c:d1:6f:47:5f:18:76:fd:01:71:df:55:60:
                    f9:ba:82:66:6d:08:51:81:4e:02:67:74:ba:6c:37:
                    b4:02:bf:cf:3d:07:16:c8:2d:9f:77:85:9a:b9:21:
                    e7:06:d2:de:4d:40:18:2b:60:3a:83:7f:d4:a8:2b:
                    6f:4f:ee:ab:db:27:93:02:10:62:74:58:6a:82:71:
                    d6:4c:89:3d:03:19:4a:5b:b4:c9:15:11:21:ea:ce:
                    99:5a:bf:ee:d6:53:cc:31:ee:06:42:96:38:5f:98:
                    0a:27:c5:e1:a0:86:47:3b:d1:ec:e2:99:28:b4:4e:
                    45:88:b4:20:4d:67:2b:40:94:43:08:8c:ca:96:a2:
                    ec:08:c0:79:ef:e0:52:21:d4:44:03:c1:b5:bd:09:
                    b7:ee:a7:4b:7b:8a:0d:12:4c:84:05:31:66:08:03:
                    b2:cc:d0:42:13:7a:a5:24:fe:0d:aa:4f:aa:5d:d2:
                    f1:4a:55:87:72:31:7e:74:db:b0:cb:a2:5f:88:80:
                    56:40:33:49:6e:e8:cf:56:99:57:41:54:12:19:71:
                    b3:3d:bd:66:f3:b1:61:15:f9:81:de:a5:6b:8d:c5:
                    4b:e5:8d:62:e5:bf:7d:f0:98:c8:24:bd:c7:fa:55:
                    b2:ac:09:e7:fb:83:f4:87:25:f3:04:07:f8:de:23:
                    b9:8e:68:09:e7:5c:9e:51:66:d6:c7:36:55:0c:1f:
                    e0:7c:ed:62:a5:47:fd:dd:c0:8d:ad:46:66:b1:80:
                    2f:03:0e:06:25:2d:98:58:37:fc:48:70:8b:67:83:
                    69:7f:39:03:36:79:e3:d0:db:83:d1:ad:fd:ba:8d:
                    9c:7a:81:67:5e:af:97:37:58:e1:a4:9e:31:65:ab:
                    47:b7:a0:eb:c6:70:de:7f:40:18:42:d9:06:d3:30:
                    17:87:a8:84:c5:9a:9e:48:41:b9:11:0f:94:27:c9:
                    5e:a1:26:47:5c:c7:42:d7:c3:0f:08:ae:7a:ba:32:
                    76:22:f0:14:5d:03:9f:f0:4f:63:3f:a1:4c:d7:e0:
                    44:0a:31
                Exponent: 65537 (0x10001)
        X509v3 extensions:
            X509v3 Subject Key Identifier:
                1B:4C:10:58:D0:62:AD:4E:A2:43:C2:9A:81:F3:59:F6:B3:2F:B1:C1
            X509v3 Authority Key Identifier:
                keyid:1B:4C:10:58:D0:62:AD:4E:A2:43:C2:9A:81:F3:59:F6:B3:2F:B1:C1

            X509v3 Basic Constraints:
                CA:TRUE
    Signature Algorithm: sha256WithRSAEncryption
        3f:b4:9b:47:b2:99:a0:90:d5:75:34:c7:a2:87:1d:90:4e:6c:
        a5:ce:59:76:68:8f:a1:17:9f:2e:0e:45:31:a6:0e:92:66:03:
        61:b9:61:e7:20:1e:d0:aa:97:ce:bf:1e:d7:d4:9c:f2:78:a0:
        99:62:1e:97:65:1c:d3:f8:b7:fb:a1:a7:23:62:32:ad:f2:72:
        1c:85:08:ab:71:60:2b:44:91:9a:bd:82:42:1f:8f:1f:fe:b9:
        39:2b:45:9d:11:7b:53:73:8f:2c:16:f6:95:f1:25:58:6d:8b:
        01:61:67:17:b6:02:b1:6a:00:48:8c:a7:59:d4:d5:3c:d1:57:
        7a:9a:4b:dd:8e:db:05:a0:f7:c0:19:10:87:b7:3a:55:34:5f:
        b4:c8:15:ec:17:5f:c1:c1:7b:5c:cb:53:ef:c3:bf:0c:1b:f6:
        a3:8d:3a:5e:72:e5:49:7f:6a:37:0c:fc:7c:f6:54:4f:9f:b9:
        37:f5:57:73:25:ed:62:9b:41:38:e8:a6:08:11:ad:c1:1a:af:
        65:94:6c:0b:cc:5b:27:1a:cd:80:bd:ea:f9:a0:a2:c0:e5:bc:
        cb:fd:3a:8c:82:85:0e:5a:0a:04:88:86:f7:10:38:2d:65:30:
        18:c2:3c:a6:07:90:6c:d6:21:78:68:28:5a:b8:ca:44:c1:2c:
        15:53:92:0b:a7:b8:bb:e3:d8:27:85:d4:c1:5f:a9:e8:32:95:
        d7:a7:98:4b:b5:db:48:e0:e8:5c:28:94:5d:d9:b3:af:74:48:
        e2:45:72:c1:34:8a:95:6e:a3:81:1e:8b:ad:47:fb:01:70:18:
        c1:25:77:da:97:27:b5:90:76:7d:3f:3e:78:2d:a9:31:f9:c3:
        85:6f:ae:a1:5d:e3:34:a2:c4:2d:25:6e:45:ba:2b:fb:ad:0d:
        d2:e5:d2:fe:6a:13:3c:64:c0:ce:fd:72:e5:83:11:88:84:c0:
        5f:c3:6a:b1:e9:a0:aa:8b:a1:29:de:c6:3d:5e:36:78:bc:4b:
        94:e7:91:49:30:2f:83:c3:34:38:e9:3b:9d:2e:cb:51:da:75:
        93:7f:78:1e:00:89:d8:bf:d8:ca:69:9d:45:92:b0:57:ed:cc:
        c1:13:ab:07:a3:23:ee:39:65:a1:b5:74:e9:6a:3b:77:22:0d:
        13:83:ea:b5:cc:51:d0:d3:fa:ce:2a:e5:0e:37:61:e1:a6:fb:
        1f:b6:de:c6:84:f6:77:8b:69:98:64:af:42:e5:88:63:68:55:
        41:98:39:e9:20:eb:2e:f8:57:b0:8e:aa:e4:45:90:88:8d:8f:
        c4:a1:f2:29:99:58:62:53:8e:64:88:ed:2b:5b:23:55:14:0d:
        4a:4a:5f:9a:b2:b1:64:59
-----BEGIN CERTIFICATE-----
MIIFOzCCAyOgAwIBAgIJANf5eG5j0n/0MA0GCSqGSIb3DQEBCwUAMDQxCzAJBgNV
BAYTAkRFMQ8wDQYDVQQIDAZCZXJsaW4xFDASBgNVBAMMC3JxenRlY2guY29tMB4X
DTE2MDQxNjExMzgzOFoXDTI2MDQxNDExMzgzOFowNDELMAkGA1UEBhMCREUxDzAN
BgNVBAgMBkJlcmxpbjEUMBIGA1UEAwwLcnF6dGVjaC5jb20wggIiMA0GCSqGSIb3
DQEBAQUAA4ICDwAwggIKAoICAQDDEewBJ2DR05JTwwYxyvmCeld7F9OmYY5XrenS
nctAHjLe5zx568XM93iv06BDVCjhDbppVurZA93IQV+NEj4jhZRz2YPbkIM1YGrF
lnd8PASdBVtNFZ5cVOrdGgNN24pWs/nuEokBsNB5u8FdVZvkPaWRDvw2L5FRDNFv
R18Ydv0Bcd9VYPm6gmZtCFGBTgJndLpsN7QCv889BxbILZ93hZq5IecG0t5NQBgr
YDqDf9SoK29P7qvbJ5MCEGJ0WGqCcdZMiT0DGUpbtMkVESHqzplav+7WU8wx7gZC
ljhfmAonxeGghkc70ezimSi0TkWItCBNZytAlEMIjMqWouwIwHnv4FIh1EQDwbW9
Cbfup0t7ig0STIQFMWYIA7LM0EITeqUk/g2qT6pd0vFKVYdyMX5027DLol+IgFZA
M0lu6M9WmVdBVBIZcbM9vWbzsWEV+YHepWuNxUvljWLlv33wmMgkvcf6VbKsCef7
g/SHJfMEB/jeI7mOaAnnXJ5RZtbHNlUMH+B87WKlR/3dwI2tRmaxgC8DDgYlLZhY
N/xIcItng2l/OQM2eePQ24PRrf26jZx6gWder5c3WOGknjFlq0e3oOvGcN5/QBhC
2QbTMBeHqITFmp5IQbkRD5QnyV6hJkdcx0LXww8Irnq6MnYi8BRdA5/wT2M/oUzX
4EQKMQIDAQABo1AwTjAdBgNVHQ4EFgQUG0wQWNBirU6iQ8KagfNZ9rMvscEwHwYD
VR0jBBgwFoAUG0wQWNBirU6iQ8KagfNZ9rMvscEwDAYDVR0TBAUwAwEB/zANBgkq
hkiG9w0BAQsFAAOCAgEAP7SbR7KZoJDVdTTHoocdkE5spc5ZdmiPoRefLg5FMaYO
kmYDYblh5yAe0KqXzr8e19Sc8nigmWIel2Uc0/i3+6GnI2IyrfJyHIUIq3FgK0SR
mr2CQh+PH/65OStFnRF7U3OPLBb2lfElWG2LAWFnF7YCsWoASIynWdTVPNFXeppL
3Y7bBaD3wBkQh7c6VTRftMgV7BdfwcF7XMtT78O/DBv2o406XnLlSX9qNwz8fPZU
T5+5N/VXcyXtYptBOOimCBGtwRqvZZRsC8xbJxrNgL3q+aCiwOW8y/06jIKFDloK
BIiG9xA4LWUwGMI8pgeQbNYheGgoWrjKRMEsFVOSC6e4u+PYJ4XUwV+p6DKV16eY
S7XbSODoXCiUXdmzr3RI4kVywTSKlW6jgR6LrUf7AXAYwSV32pcntZB2fT8+eC2p
MfnDhW+uoV3jNKLELSVuRbor+60N0uXS/moTPGTAzv1y5YMRiITAX8Nqsemgqouh
Kd7GPV42eLxLlOeRSTAvg8M0OOk7nS7LUdp1k394HgCJ2L/YymmdRZKwV+3MwROr
B6Mj7jllobV06Wo7dyINE4PqtcxR0NP6zirlDjdh4ab7H7bexoT2d4tpmGSvQuWI
Y2hVQZg56SDrLvhXsI6q5EWQiI2PxKHyKZlYYlOOZIjtK1sjVRQNSkpfmrKxZFk=
-----END CERTIFICATE-----
