Certificate:
    Data:
        Version: 3 (0x2)
        Serial Number:
            ba:e6:b6:c8:31:b3:b9:e4
        Signature Algorithm: sha256WithRSAEncryption
        Issuer: C=DE, ST=Berlin, CN=rqztech.com
        Validity
            Not Before: Apr 16 11:38:38 2016 GMT
            Not After : Apr 11 11:38:38 2036 GMT
        Subject: C=DE, ST=Berlin, CN=rqztech.com
        Subject Public Key Info:
            Public Key Algorithm: rsaEncryption
            RSA Public Key: (4096 bit)
                Modulus (4096 bit):
                    00:d3:02:ec:b7:43:e3:b7:1f:3c:ef:be:1d:38:05:
                    f5:6d:d8:a7:fb:f2:35:f7:50:f6:3b:e7:d1:bf:f1:
                    ee:a9:b7:e9:2c:d8:54:d0:a2:86:58:db:c9:4e:42:
                    56:28:f8:87:18:a6:3d:1b:80:89:04:91:c6:66:2c:
                    60:30:96:fd:a4:04:a5:1e:06:a1:93:27:5a:28:f9:
                    8b:b0:61:03:18:cd:0c:d7:01:97:02:99:84:96:ae:
                    5a:26:ac:c5:dc:0b:dc:9a:9b:be:8b:b9:db:f2:03:
                    52:25:78:9d:03:34:ea:3f:c6:58:d3:cd:f2:cf:5f:
                    bc:70:bb:b3:07:21:bf:14:c7:6a:b2:29:f7:93:e2:
                    08:ff:b8:45:cf:7c:9d:5c:26:48:6b:10:20:b0:cb:
                    ff:d2:7c:ca:96:5a:bd:6b:56:ab:53:44:82:e9:12:
                    fe:2b:b7:88:ad:ca:38:f7:14:32:95:7e:46:c8:24:
                    da:fa:62:fc:3d:b6:ac:8e:8b:2d:f0:b2:4d:8d:08:
                    d0:2f:ee:e2:78:bb:5e:57:71:b4:39:57:27:48:00:
                    cc:71:e7:bf:d4:8a:c5:2d:f0:f6:93:3a:39:d5:f8:
                    da:eb:6a:18:25:b6:5d:f9:4e:00:c3:51:34:18:d5:
                    76:82:81:0a:78:1c:ce:cf:fa:ed:6d:af:0b:22:99:
                    8c:4c:2d:6e:af:ae:4e:47:6d:10:77:70:9f:95:a0:
                    a1:52:5d:77:b9:26:82:73:90:13:cb:7d:2f:9c:c2:
                    f8:54:45:80:1d:be:8f:f6:a6:b2:6d:95:3c:88:6a:
                    19:3d:94:7f:69:61:73:7b:69:4b:76:ee:7a:59:5c:
                    11:14:15:5d:91:11:14:a7:9c:62:82:18:c7:a8:32:
                    f5:ba:9b:15:69:91:e6:de:35:bb:a0:45:b7:fb:f5:
                    0c:a4:25:8e:83:c4:39:74:3b:ad:b7:75:ec:c0:c5:
                    a9:c9:49:fa:88:95:96:a4:3b:66:6d:13:44:b6:d0:
                    97:52:87:64:12:26:7c:a6:2a:d4:a8:a4:7b:d2:f6:
                    75:2b:ed:94:1f:75:f2:8c:2d:68:c5:f4:9d:57:d1:
                    95:68:44:2c:fa:1a:c7:ce:8e:07:b1:27:e1:41:1b:
                    99:a8:94:70:60:7e:d0:b3:ad:f9:dd:87:bd:12:1a:
                    15:cf:03:94:65:43:8c:d2:d1:0a:14:00:b5:30:54:
                    26:42:b4:a3:19:2b:7a:03:41:cf:4d:76:1e:8b:d0:
                    9a:66:20:b3:ad:29:db:76:9f:be:11:ea:b9:f7:7f:
                    18:c4:07:a4:85:9f:8b:5c:2a:3a:28:4d:a4:d2:16:
                    03:d9:6a:42:f4:ab:b3:2f:c8:d4:3a:d1:bd:f4:21:
                    5c:08:c9
                Exponent: 65537 (0x10001)
        X509v3 extensions:
            X509v3 Subject Key Identifier:
                51:2E:D2:C3:93:10:DB:98:C0:D9:7D:9B:51:63:85:2D:B2:68:1F:62
            X509v3 Authority Key Identifier:
                keyid:51:2E:D2:C3:93:10:DB:98:C0:D9:7D:9B:51:63:85:2D:B2:68:1F:62

            X509v3 Basic Constraints:
                CA:TRUE
    Signature Algorithm: sha256WithRSAEncryption
        d2:ae:94:9b:47:35:21:28:72:c7:77:01:02:05:b2:e6:ff:4d:
        27:95:08:d7:10:94:ab:1e:c4:1e:e0:4c:d0:e3:48:c0:f7:73:
        30:ed:06:bf:32:2c:ff:9a:bc:91:3e:43:b6:5e:6c:c9:ae:b1:
        6f:84:11:ae:35:d4:fb:43:2a:13:fd:6c:01:f7:fa:13:ea:87:
        1d:f0:b1:63:81:3d:0b:e6:c5:40:f0:69:81:df:d0:ca:f8:53:
        de:92:3b:8c:64:a5:7c:19:68:eb:09:e1:1b:06:ec:45:fc:22:
        f9:c8:a6:74:31:27:88:a9:c7:d0:8b:8c:91:bb:08:f1:b6:71:
        9e:a1:d4:88:4f:2e:5c:9f:c5:bd:9e:63:74:43:ce:2a:1f:59:
        05:72:c9:88:ba:d9:f2:e4:ed:b1:b6:bb:e1:35:1f:41:01:ee:
        44:51:a9:3a:4b:a7:3e:e9:ef:41:11:54:33:a3:a8:0e:a8:e9:
        ed:06:89:60:0e:37:15:39:82:d7:a3:15:6f:d9:ec:5e:68:47:
        d4:33:62:9a:68:52:41:38:63:ac:fd:14:ed:57:d6:2b:4e:61:
        d6:f1:d8:a2:39:1a:f7:0c:bf:16:27:3c:d0:4a:86:c6:4d:91:
        b2:c7:96:ce:ed:cd:4b:1f:a4:e0:a9:fa:ba:a0:7c:e6:96:a2:
        19:a4:73:6b:fd:5b:62:27:dc:24:95:31:f8:35:9b:8e:6c:ea:
        2c:4e:be:15:08:12:51:01:96:34:63:78:02:ca:31:25:61:f8:
        13:3f:3d:02:ab:a9:4c:9a:d4:5e:b0:c8:3a:d9:21:da:cf:b8:
        98:91:49:fc:9d:7b:e0:c1:55:87:37:c9:ad:6e:e7:d9:92:6d:
        6d:79:db:cd:a9:c4:f3:c6:0e:28:dc:0e:b4:79:77:5e:8e:86:
        24:e5:56:b6:40:3c:02:b8:c7:49:e6:62:c7:8d:f1:b9:06:b6:
        9b:17:28:2b:b2:ca:06:6d:17:bf:79:8b:98:49:ed:dc:2b:eb:
        a1:7c:bc:01:1b:bb:49:a8:ff:63:1c:a4:d2:b8:75:cc:be:34:
        22:cf:ef:fb:17:f0:79:08:96:2b:4a:e9:41:03:de:f5:11:dd:
        e7:36:b2:11:d3:0c:18:81:9d:98:d1:a7:9b:12:0f:62:ed:1b:
        f4:5e:56:c3:b6:6f:9f:58:99:18:93:3e:e7:ca:b7:25:de:3d:
        68:6a:fd:60:a5:de:32:fc:9b:55:ca:d2:44:ab:31:65:f0:d6:
        1e:6b:32:ed:08:c3:9d:6e:e7:27:3f:b6:a9:19:8e:8e:46:f1:
        f3:a7:8f:40:37:38:e8:fa:49:49:18:db:48:2d:d8:d3:9a:c2:
        69:4f:6e:00:b6:ee:c3:9e
-----BEGIN CERTIFICATE-----
MIIFOzCCAyOgAwIBAgIJALrmtsgxs7nkMA0GCSqGSIb3DQEBCwUAMDQxCzAJBgNV
BAYTAkRFMQ8wDQYDVQQIDAZCZXJsaW4xFDASBgNVBAMMC3JxenRlY2guY29tMB4X
DTE2MDQxNjExMzgzOFoXDTM2MDQxMTExMzgzOFowNDELMAkGA1UEBhMCREUxDzAN
BgNVBAgMBkJlcmxpbjEUMBIGA1UEAwwLcnF6dGVjaC5jb20wggIiMA0GCSqGSIb3
DQEBAQUAA4ICDwAwggIKAoICAQDTAuy3Q+O3Hzzvvh04BfVt2Kf78jX3UPY759G/
8e6pt+ks2FTQooZY28lOQlYo+IcYpj0bgIkEkcZmLGAwlv2kBKUeBqGTJ1oo+Yuw
YQMYzQzXAZcCmYSWrlomrMXcC9yam76LudvyA1IleJ0DNOo/xljTzfLPX7xwu7MH
Ib8Ux2qyKfeT4gj/uEXPfJ1cJkhrECCwy//SfMqWWr1rVqtTRILpEv4rt4ityjj3
FDKVfkbIJNr6Yvw9tqyOiy3wsk2NCNAv7uJ4u15XcbQ5VydIAMxx57/UisUt8PaT
OjnV+Nrrahgltl35TgDDUTQY1XaCgQp4HM7P+u1trwsimYxMLW6vrk5HbRB3cJ+V
oKFSXXe5JoJzkBPLfS+cwvhURYAdvo/2prJtlTyIahk9lH9pYXN7aUt27npZXBEU
FV2RERSnnGKCGMeoMvW6mxVpkebeNbugRbf79QykJY6DxDl0O623dezAxanJSfqI
lZakO2ZtE0S20JdSh2QSJnymKtSopHvS9nUr7ZQfdfKMLWjF9J1X0ZVoRCz6GsfO
jgexJ+FBG5molHBgftCzrfndh70SGhXPA5RlQ4zS0QoUALUwVCZCtKMZK3oDQc9N
dh6L0JpmILOtKdt2n74R6rn3fxjEB6SFn4tcKjooTaTSFgPZakL0q7MvyNQ60b30
IVwIyQIDAQABo1AwTjAdBgNVHQ4EFgQUUS7Sw5MQ25jA2X2bUWOFLbJoH2IwHwYD
VR0jBBgwFoAUUS7Sw5MQ25jA2X2bUWOFLbJoH2IwDAYDVR0TBAUwAwEB/zANBgkq
hkiG9w0BAQsFAAOCAgEA0q6Um0c1IShyx3cBAgWy5v9NJ5UI1xCUqx7EHuBM0ONI
wPdzMO0GvzIs/5q8kT5Dtl5sya6xb4QRrjXU+0MqE/1sAff6E+qHHfCxY4E9C+bF
QPBpgd/QyvhT3pI7jGSlfBlo6wnhGwbsRfwi+cimdDEniKnH0IuMkbsI8bZxnqHU
iE8uXJ/FvZ5jdEPOKh9ZBXLJiLrZ8uTtsba74TUfQQHuRFGpOkunPunvQRFUM6Oo
Dqjp7QaJYA43FTmC16MVb9nsXmhH1DNimmhSQThjrP0U7VfWK05h1vHYojka9wy/
Fic80EqGxk2RsseWzu3NSx+k4Kn6uqB85paiGaRza/1bYifcJJUx+DWbjmzqLE6+
FQgSUQGWNGN4AsoxJWH4Ez89AqupTJrUXrDIOtkh2s+4mJFJ/J174MFVhzfJrW7n
2ZJtbXnbzanE88YOKNwOtHl3Xo6GJOVWtkA8ArjHSeZix43xuQa2mxcoK7LKBm0X
v3mLmEnt3CvroXy8ARu7Saj/Yxyk0rh1zL40Is/v+xfweQiWK0rpQQPe9RHd5zay
EdMMGIGdmNGnmxIPYu0b9F5Ww7Zvn1iZGJM+58q3Jd49aGr9YKXeMvybVcrSRKsx
ZfDWHmsy7QjDnW7nJz+2qRmOjkbx86ePQDc46PpJSRjbSC3Y05rCaU9uALbuw54=
-----END CERTIFICATE-----
